
compiled_illegal_instr.elf:     file format elf32-littleriscv


Disassembly of section .text:

00000000 <_start>:
   0:	2000006f          	j	200 <reset_vector>
	...

00000100 <trap_vector_exception>:
 100:	1280006f          	j	228 <exception_handler>
	...

0000010c <trap_vector_machine_software_int>:
 10c:	ef5ff06f          	j	0 <_start>

00000110 <trap_vector_user_timer_int>:
 110:	ef1ff06f          	j	0 <_start>
	...

0000011c <trap_vector_machine_timer_int>:
 11c:	ee5ff06f          	j	0 <_start>

00000120 <trap_vector_user_external_int>:
 120:	ee1ff06f          	j	0 <_start>
	...

0000012c <trap_vector_machine_external_int>:
 12c:	ed5ff06f          	j	0 <_start>
	...

00000200 <reset_vector>:
 200:	00000297          	auipc	t0,0x0
 204:	f0028293          	addi	t0,t0,-256 # 100 <trap_vector_exception>
 208:	0012e293          	ori	t0,t0,1
 20c:	30529073          	csrw	mtvec,t0
 210:	00002197          	auipc	gp,0x2
 214:	94818193          	addi	gp,gp,-1720 # 1b58 <__global_pointer$>
 218:	00020137          	lui	sp,0x20
 21c:	00000413          	li	s0,0
 220:	0a4000ef          	jal	ra,2c4 <main>
 224:	dddff06f          	j	0 <_start>

00000228 <exception_handler>:
 228:	ffc10113          	addi	sp,sp,-4 # 1fffc <__global_pointer$+0x1e4a4>
 22c:	00512023          	sw	t0,0(sp)
 230:	342022f3          	csrr	t0,mcause
 234:	dc02c6e3          	bltz	t0,0 <_start>
 238:	00229293          	slli	t0,t0,0x2
 23c:	24028067          	jr	576(t0)

00000240 <exception_table>:
 240:	0340006f          	j	274 <exception_handler_instr_addr_misaligned>
 244:	02c0006f          	j	270 <exception_handler_not_implemented>
 248:	0300006f          	j	278 <exception_handler_illegal_instr>
 24c:	0440006f          	j	290 <exception_handler_breakpoint>
 250:	0440006f          	j	294 <exception_handler_load_addr_misaligned>
 254:	01c0006f          	j	270 <exception_handler_not_implemented>
 258:	0400006f          	j	298 <exception_handler_store_addr_misaligned>
 25c:	0140006f          	j	270 <exception_handler_not_implemented>
 260:	03c0006f          	j	29c <exception_handler_user_env_call>
 264:	00c0006f          	j	270 <exception_handler_not_implemented>
 268:	0080006f          	j	270 <exception_handler_not_implemented>
 26c:	0340006f          	j	2a0 <exception_handler_machine_env_call>

00000270 <exception_handler_not_implemented>:
 270:	d91ff06f          	j	0 <_start>

00000274 <exception_handler_instr_addr_misaligned>:
 274:	d8dff06f          	j	0 <_start>

00000278 <exception_handler_illegal_instr>:
 278:	00000297          	auipc	t0,0x0
 27c:	02c28293          	addi	t0,t0,44 # 2a4 <fn0>
 280:	34129073          	csrw	mepc,t0
 284:	00012283          	lw	t0,0(sp)
 288:	00410113          	addi	sp,sp,4
 28c:	30200073          	mret

00000290 <exception_handler_breakpoint>:
 290:	d71ff06f          	j	0 <_start>

00000294 <exception_handler_load_addr_misaligned>:
 294:	d6dff06f          	j	0 <_start>

00000298 <exception_handler_store_addr_misaligned>:
 298:	d69ff06f          	j	0 <_start>

0000029c <exception_handler_user_env_call>:
 29c:	d65ff06f          	j	0 <_start>

000002a0 <exception_handler_machine_env_call>:
 2a0:	d61ff06f          	j	0 <_start>

000002a4 <fn0>:
 2a4:	ff010113          	addi	sp,sp,-16
 2a8:	00812623          	sw	s0,12(sp)
 2ac:	01010413          	addi	s0,sp,16
 2b0:	fff00793          	li	a5,-1
 2b4:	00078513          	mv	a0,a5
 2b8:	00c12403          	lw	s0,12(sp)
 2bc:	01010113          	addi	sp,sp,16
 2c0:	00008067          	ret

000002c4 <main>:
 2c4:	fe010113          	addi	sp,sp,-32
 2c8:	00112e23          	sw	ra,28(sp)
 2cc:	00812c23          	sw	s0,24(sp)
 2d0:	02010413          	addi	s0,sp,32
 2d4:	001007b7          	lui	a5,0x100
 2d8:	51378793          	addi	a5,a5,1299 # 100513 <__global_pointer$+0xfe9bb>
 2dc:	fef42223          	sw	a5,-28(s0)
 2e0:	000087b7          	lui	a5,0x8
 2e4:	06778793          	addi	a5,a5,103 # 8067 <__global_pointer$+0x650f>
 2e8:	fef42423          	sw	a5,-24(s0)
 2ec:	02c587b7          	lui	a5,0x2c58
 2f0:	53378793          	addi	a5,a5,1331 # 2c58533 <__global_pointer$+0x2c569db>
 2f4:	fef42023          	sw	a5,-32(s0)
 2f8:	fe440793          	addi	a5,s0,-28
 2fc:	fef42623          	sw	a5,-20(s0)
 300:	fec42783          	lw	a5,-20(s0)
 304:	000780e7          	jalr	a5
 308:	00050713          	mv	a4,a0
 30c:	00100793          	li	a5,1
 310:	00f70663          	beq	a4,a5,31c <main+0x58>
 314:	00000793          	li	a5,0
 318:	02c0006f          	j	344 <main+0x80>
 31c:	fe040793          	addi	a5,s0,-32
 320:	fef42623          	sw	a5,-20(s0)
 324:	fec42783          	lw	a5,-20(s0)
 328:	000780e7          	jalr	a5
 32c:	00050713          	mv	a4,a0
 330:	fff00793          	li	a5,-1
 334:	00f70663          	beq	a4,a5,340 <main+0x7c>
 338:	00000793          	li	a5,0
 33c:	0080006f          	j	344 <main+0x80>
 340:	00100793          	li	a5,1
 344:	00078513          	mv	a0,a5
 348:	01c12083          	lw	ra,28(sp)
 34c:	01812403          	lw	s0,24(sp)
 350:	02010113          	addi	sp,sp,32
 354:	00008067          	ret
