
compiled_test_thrash.elf:     file format elf32-littleriscv


Disassembly of section .text:

00000000 <_start>:
   0:	80000137          	lui	sp,0x80000
   4:	00000413          	li	s0,0
   8:	1e8000ef          	jal	ra,1f0 <main>
   c:	00000067          	jr	zero # 0 <_start>

00000010 <random>:
  10:	fe010113          	addi	sp,sp,-32 # 7fffffe0 <__global_pointer$+0x7fffe59c>
  14:	00812e23          	sw	s0,28(sp)
  18:	02010413          	addi	s0,sp,32
  1c:	fea42623          	sw	a0,-20(s0)
  20:	fec42783          	lw	a5,-20(s0)
  24:	01f7d713          	srli	a4,a5,0x1f
  28:	fec42783          	lw	a5,-20(s0)
  2c:	0067d793          	srli	a5,a5,0x6
  30:	00f74733          	xor	a4,a4,a5
  34:	fec42783          	lw	a5,-20(s0)
  38:	0047d793          	srli	a5,a5,0x4
  3c:	00f74733          	xor	a4,a4,a5
  40:	fec42783          	lw	a5,-20(s0)
  44:	0027d793          	srli	a5,a5,0x2
  48:	00f74733          	xor	a4,a4,a5
  4c:	fec42783          	lw	a5,-20(s0)
  50:	0017d793          	srli	a5,a5,0x1
  54:	00f74733          	xor	a4,a4,a5
  58:	fec42783          	lw	a5,-20(s0)
  5c:	00f747b3          	xor	a5,a4,a5
  60:	01f79713          	slli	a4,a5,0x1f
  64:	fec42783          	lw	a5,-20(s0)
  68:	0017d793          	srli	a5,a5,0x1
  6c:	00f767b3          	or	a5,a4,a5
  70:	fef42623          	sw	a5,-20(s0)
  74:	fec42783          	lw	a5,-20(s0)
  78:	00078513          	mv	a0,a5
  7c:	01c12403          	lw	s0,28(sp)
  80:	02010113          	addi	sp,sp,32
  84:	00008067          	ret

00000088 <thrash>:
  88:	fd010113          	addi	sp,sp,-48
  8c:	02112623          	sw	ra,44(sp)
  90:	02812423          	sw	s0,40(sp)
  94:	03010413          	addi	s0,sp,48
  98:	fca42e23          	sw	a0,-36(s0)
  9c:	fcb42c23          	sw	a1,-40(s0)
  a0:	fdc42783          	lw	a5,-36(s0)
  a4:	fef42223          	sw	a5,-28(s0)
  a8:	fe042623          	sw	zero,-20(s0)
  ac:	0800006f          	j	12c <thrash+0xa4>
  b0:	fe442503          	lw	a0,-28(s0)
  b4:	f5dff0ef          	jal	ra,10 <random>
  b8:	fea42223          	sw	a0,-28(s0)
  bc:	fe442703          	lw	a4,-28(s0)
  c0:	800007b7          	lui	a5,0x80000
  c4:	ff07c793          	xori	a5,a5,-16
  c8:	00f77733          	and	a4,a4,a5
  cc:	800007b7          	lui	a5,0x80000
  d0:	00f767b3          	or	a5,a4,a5
  d4:	fef42023          	sw	a5,-32(s0)
  d8:	fe042423          	sw	zero,-24(s0)
  dc:	0380006f          	j	114 <thrash+0x8c>
  e0:	fe842783          	lw	a5,-24(s0)
  e4:	00279793          	slli	a5,a5,0x2
  e8:	fe042703          	lw	a4,-32(s0)
  ec:	00f706b3          	add	a3,a4,a5
  f0:	fe842783          	lw	a5,-24(s0)
  f4:	00279793          	slli	a5,a5,0x2
  f8:	fe042703          	lw	a4,-32(s0)
  fc:	00f707b3          	add	a5,a4,a5
 100:	00068713          	mv	a4,a3
 104:	00e7a023          	sw	a4,0(a5) # 80000000 <__global_pointer$+0x7fffe5bc>
 108:	fe842783          	lw	a5,-24(s0)
 10c:	00478793          	addi	a5,a5,4
 110:	fef42423          	sw	a5,-24(s0)
 114:	fe842703          	lw	a4,-24(s0)
 118:	00f00793          	li	a5,15
 11c:	fce7f2e3          	bleu	a4,a5,e0 <thrash+0x58>
 120:	fec42783          	lw	a5,-20(s0)
 124:	00178793          	addi	a5,a5,1
 128:	fef42623          	sw	a5,-20(s0)
 12c:	fec42703          	lw	a4,-20(s0)
 130:	fd842783          	lw	a5,-40(s0)
 134:	f6f76ee3          	bltu	a4,a5,b0 <thrash+0x28>
 138:	fdc42783          	lw	a5,-36(s0)
 13c:	fef42223          	sw	a5,-28(s0)
 140:	fe042623          	sw	zero,-20(s0)
 144:	0880006f          	j	1cc <thrash+0x144>
 148:	fe442503          	lw	a0,-28(s0)
 14c:	ec5ff0ef          	jal	ra,10 <random>
 150:	fea42223          	sw	a0,-28(s0)
 154:	fe442703          	lw	a4,-28(s0)
 158:	800007b7          	lui	a5,0x80000
 15c:	ff07c793          	xori	a5,a5,-16
 160:	00f77733          	and	a4,a4,a5
 164:	800007b7          	lui	a5,0x80000
 168:	00f767b3          	or	a5,a4,a5
 16c:	fef42023          	sw	a5,-32(s0)
 170:	fe042423          	sw	zero,-24(s0)
 174:	0400006f          	j	1b4 <thrash+0x12c>
 178:	fe842783          	lw	a5,-24(s0)
 17c:	00279793          	slli	a5,a5,0x2
 180:	fe042703          	lw	a4,-32(s0)
 184:	00f707b3          	add	a5,a4,a5
 188:	0007a783          	lw	a5,0(a5) # 80000000 <__global_pointer$+0x7fffe5bc>
 18c:	fe842703          	lw	a4,-24(s0)
 190:	00271713          	slli	a4,a4,0x2
 194:	fe042683          	lw	a3,-32(s0)
 198:	00e68733          	add	a4,a3,a4
 19c:	00e78663          	beq	a5,a4,1a8 <thrash+0x120>
 1a0:	00100793          	li	a5,1
 1a4:	0380006f          	j	1dc <thrash+0x154>
 1a8:	fe842783          	lw	a5,-24(s0)
 1ac:	00478793          	addi	a5,a5,4
 1b0:	fef42423          	sw	a5,-24(s0)
 1b4:	fe842703          	lw	a4,-24(s0)
 1b8:	00f00793          	li	a5,15
 1bc:	fae7fee3          	bleu	a4,a5,178 <thrash+0xf0>
 1c0:	fec42783          	lw	a5,-20(s0)
 1c4:	00178793          	addi	a5,a5,1
 1c8:	fef42623          	sw	a5,-20(s0)
 1cc:	fec42703          	lw	a4,-20(s0)
 1d0:	fd842783          	lw	a5,-40(s0)
 1d4:	f6f76ae3          	bltu	a4,a5,148 <thrash+0xc0>
 1d8:	00000793          	li	a5,0
 1dc:	00078513          	mv	a0,a5
 1e0:	02c12083          	lw	ra,44(sp)
 1e4:	02812403          	lw	s0,40(sp)
 1e8:	03010113          	addi	sp,sp,48
 1ec:	00008067          	ret

000001f0 <main>:
 1f0:	fe010113          	addi	sp,sp,-32
 1f4:	00112e23          	sw	ra,28(sp)
 1f8:	00812c23          	sw	s0,24(sp)
 1fc:	02010413          	addi	s0,sp,32
 200:	123457b7          	lui	a5,0x12345
 204:	67878793          	addi	a5,a5,1656 # 12345678 <__global_pointer$+0x12343c34>
 208:	fef42623          	sw	a5,-20(s0)
 20c:	000187b7          	lui	a5,0x18
 210:	6a078793          	addi	a5,a5,1696 # 186a0 <__global_pointer$+0x16c5c>
 214:	fef42423          	sw	a5,-24(s0)
 218:	fec42783          	lw	a5,-20(s0)
 21c:	fe842703          	lw	a4,-24(s0)
 220:	00070593          	mv	a1,a4
 224:	00078513          	mv	a0,a5
 228:	e61ff0ef          	jal	ra,88 <thrash>
 22c:	00050793          	mv	a5,a0
 230:	00078513          	mv	a0,a5
 234:	01c12083          	lw	ra,28(sp)
 238:	01812403          	lw	s0,24(sp)
 23c:	02010113          	addi	sp,sp,32
 240:	00008067          	ret
