
instruction_test_bge.elf:     file format elf32-littleriscv


Disassembly of section .text:

00000000 <_start>:
   0:	00000513          	addi	a0,zero,0
   4:	05a5a437          	lui	s0,0x5a5a
   8:	5a540413          	addi	s0,s0,1445 # 5a5a5a5 <__global_pointer$+0x5a58a89>
   c:	0a5a64b7          	lui	s1,0xa5a6
  10:	a5a48493          	addi	s1,s1,-1446 # a5a5a5a <__global_pointer$+0xa5a3f3e>
  14:	0084d663          	bge	s1,s0,20 <L01_t>
  18:	00000513          	addi	a0,zero,0
  1c:	00000067          	jalr	zero,0(zero) # 0 <_start>

00000020 <L01_t>:
  20:	a5a5a437          	lui	s0,0xa5a5a
  24:	5a540413          	addi	s0,s0,1445 # a5a5a5a5 <__global_pointer$+0xa5a58a89>
  28:	aa55b4b7          	lui	s1,0xaa55b
  2c:	a5548493          	addi	s1,s1,-1451 # aa55aa55 <__global_pointer$+0xaa558f39>
  30:	0084d663          	bge	s1,s0,3c <L02_t>
  34:	00000513          	addi	a0,zero,0
  38:	00000067          	jalr	zero,0(zero) # 0 <_start>

0000003c <L02_t>:
  3c:	a5a5a437          	lui	s0,0xa5a5a
  40:	5a540413          	addi	s0,s0,1445 # a5a5a5a5 <__global_pointer$+0xa5a58a89>
  44:	5a5a64b7          	lui	s1,0x5a5a6
  48:	a5a48493          	addi	s1,s1,-1446 # 5a5a5a5a <__global_pointer$+0x5a5a3f3e>
  4c:	0084d663          	bge	s1,s0,58 <L03_t>
  50:	00000513          	addi	a0,zero,0
  54:	00000067          	jalr	zero,0(zero) # 0 <_start>

00000058 <L03_t>:
  58:	00000413          	addi	s0,zero,0
  5c:	5a5a64b7          	lui	s1,0x5a5a6
  60:	a5a48493          	addi	s1,s1,-1446 # 5a5a5a5a <__global_pointer$+0x5a5a3f3e>
  64:	0084d663          	bge	s1,s0,70 <L04_t>
  68:	00000513          	addi	a0,zero,0
  6c:	00000067          	jalr	zero,0(zero) # 0 <_start>

00000070 <L04_t>:
  70:	a5a5a437          	lui	s0,0xa5a5a
  74:	5a540413          	addi	s0,s0,1445 # a5a5a5a5 <__global_pointer$+0xa5a58a89>
  78:	00000493          	addi	s1,zero,0
  7c:	0084d663          	bge	s1,s0,88 <L05_t>
  80:	00000513          	addi	a0,zero,0
  84:	00000067          	jalr	zero,0(zero) # 0 <_start>

00000088 <L05_t>:
  88:	5a5a6437          	lui	s0,0x5a5a6
  8c:	a5a40413          	addi	s0,s0,-1446 # 5a5a5a5a <__global_pointer$+0x5a5a3f3e>
  90:	5a5a64b7          	lui	s1,0x5a5a6
  94:	a5a48493          	addi	s1,s1,-1446 # 5a5a5a5a <__global_pointer$+0x5a5a3f3e>
  98:	0084d663          	bge	s1,s0,a4 <L06_t>
  9c:	00000513          	addi	a0,zero,0
  a0:	00000067          	jalr	zero,0(zero) # 0 <_start>

000000a4 <L06_t>:
  a4:	a5a5a437          	lui	s0,0xa5a5a
  a8:	5a540413          	addi	s0,s0,1445 # a5a5a5a5 <__global_pointer$+0xa5a58a89>
  ac:	a5a5a4b7          	lui	s1,0xa5a5a
  b0:	5a548493          	addi	s1,s1,1445 # a5a5a5a5 <__global_pointer$+0xa5a58a89>
  b4:	0084d663          	bge	s1,s0,c0 <L07_t>
  b8:	00000513          	addi	a0,zero,0
  bc:	00000067          	jalr	zero,0(zero) # 0 <_start>

000000c0 <L07_t>:
  c0:	00000413          	addi	s0,zero,0
  c4:	00000493          	addi	s1,zero,0
  c8:	0084d663          	bge	s1,s0,d4 <L08_t>
  cc:	00000513          	addi	a0,zero,0
  d0:	00000067          	jalr	zero,0(zero) # 0 <_start>

000000d4 <L08_t>:
  d4:	0a5a6437          	lui	s0,0xa5a6
  d8:	a5a40413          	addi	s0,s0,-1446 # a5a5a5a <__global_pointer$+0xa5a3f3e>
  dc:	05a5a4b7          	lui	s1,0x5a5a
  e0:	5a548493          	addi	s1,s1,1445 # 5a5a5a5 <__global_pointer$+0x5a58a89>
  e4:	0084d463          	bge	s1,s0,ec <L11_t>
  e8:	00c0006f          	jal	zero,f4 <L11>

000000ec <L11_t>:
  ec:	00000513          	addi	a0,zero,0
  f0:	00000067          	jalr	zero,0(zero) # 0 <_start>

000000f4 <L11>:
  f4:	aa55b437          	lui	s0,0xaa55b
  f8:	a5540413          	addi	s0,s0,-1451 # aa55aa55 <__global_pointer$+0xaa558f39>
  fc:	a5a5a4b7          	lui	s1,0xa5a5a
 100:	5a548493          	addi	s1,s1,1445 # a5a5a5a5 <__global_pointer$+0xa5a58a89>
 104:	0084d463          	bge	s1,s0,10c <L12_t>
 108:	00c0006f          	jal	zero,114 <L12>

0000010c <L12_t>:
 10c:	00000513          	addi	a0,zero,0
 110:	00000067          	jalr	zero,0(zero) # 0 <_start>

00000114 <L12>:
 114:	5a5a6437          	lui	s0,0x5a5a6
 118:	a5a40413          	addi	s0,s0,-1446 # 5a5a5a5a <__global_pointer$+0x5a5a3f3e>
 11c:	a5a5a4b7          	lui	s1,0xa5a5a
 120:	5a548493          	addi	s1,s1,1445 # a5a5a5a5 <__global_pointer$+0xa5a58a89>
 124:	0084d463          	bge	s1,s0,12c <L13_t>
 128:	00c0006f          	jal	zero,134 <L13>

0000012c <L13_t>:
 12c:	00000513          	addi	a0,zero,0
 130:	00000067          	jalr	zero,0(zero) # 0 <_start>

00000134 <L13>:
 134:	5a5a6437          	lui	s0,0x5a5a6
 138:	a5a40413          	addi	s0,s0,-1446 # 5a5a5a5a <__global_pointer$+0x5a5a3f3e>
 13c:	00000493          	addi	s1,zero,0
 140:	0084d463          	bge	s1,s0,148 <L14_t>
 144:	00c0006f          	jal	zero,150 <L14>

00000148 <L14_t>:
 148:	00000513          	addi	a0,zero,0
 14c:	00000067          	jalr	zero,0(zero) # 0 <_start>

00000150 <L14>:
 150:	00000413          	addi	s0,zero,0
 154:	a5a5a4b7          	lui	s1,0xa5a5a
 158:	5a548493          	addi	s1,s1,1445 # a5a5a5a5 <__global_pointer$+0xa5a58a89>
 15c:	0084d463          	bge	s1,s0,164 <L15_t>
 160:	00c0006f          	jal	zero,16c <L15>

00000164 <L15_t>:
 164:	00000513          	addi	a0,zero,0
 168:	00000067          	jalr	zero,0(zero) # 0 <_start>

0000016c <L15>:
 16c:	0080006f          	jal	zero,174 <L21>

00000170 <L21_t>:
 170:	0200006f          	jal	zero,190 <L21_e>

00000174 <L21>:
 174:	05a5a437          	lui	s0,0x5a5a
 178:	5a540413          	addi	s0,s0,1445 # 5a5a5a5 <__global_pointer$+0x5a58a89>
 17c:	0a5a64b7          	lui	s1,0xa5a6
 180:	a5a48493          	addi	s1,s1,-1446 # a5a5a5a <__global_pointer$+0xa5a3f3e>
 184:	fe84d6e3          	bge	s1,s0,170 <L21_t>
 188:	00000513          	addi	a0,zero,0
 18c:	00000067          	jalr	zero,0(zero) # 0 <_start>

00000190 <L21_e>:
 190:	0080006f          	jal	zero,198 <L22>

00000194 <L22_t>:
 194:	0200006f          	jal	zero,1b4 <L22_e>

00000198 <L22>:
 198:	a5a5a437          	lui	s0,0xa5a5a
 19c:	5a540413          	addi	s0,s0,1445 # a5a5a5a5 <__global_pointer$+0xa5a58a89>
 1a0:	aa55b4b7          	lui	s1,0xaa55b
 1a4:	a5548493          	addi	s1,s1,-1451 # aa55aa55 <__global_pointer$+0xaa558f39>
 1a8:	fe84d6e3          	bge	s1,s0,194 <L22_t>
 1ac:	00000513          	addi	a0,zero,0
 1b0:	00000067          	jalr	zero,0(zero) # 0 <_start>

000001b4 <L22_e>:
 1b4:	0080006f          	jal	zero,1bc <L23>

000001b8 <L23_t>:
 1b8:	0200006f          	jal	zero,1d8 <L23_e>

000001bc <L23>:
 1bc:	a5a5a437          	lui	s0,0xa5a5a
 1c0:	5a540413          	addi	s0,s0,1445 # a5a5a5a5 <__global_pointer$+0xa5a58a89>
 1c4:	5a5a64b7          	lui	s1,0x5a5a6
 1c8:	a5a48493          	addi	s1,s1,-1446 # 5a5a5a5a <__global_pointer$+0x5a5a3f3e>
 1cc:	fe84d6e3          	bge	s1,s0,1b8 <L23_t>
 1d0:	00000513          	addi	a0,zero,0
 1d4:	00000067          	jalr	zero,0(zero) # 0 <_start>

000001d8 <L23_e>:
 1d8:	0080006f          	jal	zero,1e0 <L24>

000001dc <L24_t>:
 1dc:	01c0006f          	jal	zero,1f8 <L24_e>

000001e0 <L24>:
 1e0:	00000413          	addi	s0,zero,0
 1e4:	5a5a64b7          	lui	s1,0x5a5a6
 1e8:	a5a48493          	addi	s1,s1,-1446 # 5a5a5a5a <__global_pointer$+0x5a5a3f3e>
 1ec:	fe84d8e3          	bge	s1,s0,1dc <L24_t>
 1f0:	00000513          	addi	a0,zero,0
 1f4:	00000067          	jalr	zero,0(zero) # 0 <_start>

000001f8 <L24_e>:
 1f8:	0080006f          	jal	zero,200 <L25>

000001fc <L25_t>:
 1fc:	01c0006f          	jal	zero,218 <L25_e>

00000200 <L25>:
 200:	a5a5a437          	lui	s0,0xa5a5a
 204:	5a540413          	addi	s0,s0,1445 # a5a5a5a5 <__global_pointer$+0xa5a58a89>
 208:	00000493          	addi	s1,zero,0
 20c:	fe84d8e3          	bge	s1,s0,1fc <L25_t>
 210:	00000513          	addi	a0,zero,0
 214:	00000067          	jalr	zero,0(zero) # 0 <_start>

00000218 <L25_e>:
 218:	0080006f          	jal	zero,220 <L26>

0000021c <L26_t>:
 21c:	0200006f          	jal	zero,23c <L26_e>

00000220 <L26>:
 220:	5a5a6437          	lui	s0,0x5a5a6
 224:	a5a40413          	addi	s0,s0,-1446 # 5a5a5a5a <__global_pointer$+0x5a5a3f3e>
 228:	5a5a64b7          	lui	s1,0x5a5a6
 22c:	a5a48493          	addi	s1,s1,-1446 # 5a5a5a5a <__global_pointer$+0x5a5a3f3e>
 230:	fe84d6e3          	bge	s1,s0,21c <L26_t>
 234:	00000513          	addi	a0,zero,0
 238:	00000067          	jalr	zero,0(zero) # 0 <_start>

0000023c <L26_e>:
 23c:	0080006f          	jal	zero,244 <L27>

00000240 <L27_t>:
 240:	0200006f          	jal	zero,260 <L27_e>

00000244 <L27>:
 244:	a5a5a437          	lui	s0,0xa5a5a
 248:	5a540413          	addi	s0,s0,1445 # a5a5a5a5 <__global_pointer$+0xa5a58a89>
 24c:	a5a5a4b7          	lui	s1,0xa5a5a
 250:	5a548493          	addi	s1,s1,1445 # a5a5a5a5 <__global_pointer$+0xa5a58a89>
 254:	fe84d6e3          	bge	s1,s0,240 <L27_t>
 258:	00000513          	addi	a0,zero,0
 25c:	00000067          	jalr	zero,0(zero) # 0 <_start>

00000260 <L27_e>:
 260:	0080006f          	jal	zero,268 <L28>

00000264 <L28_t>:
 264:	0180006f          	jal	zero,27c <L28_e>

00000268 <L28>:
 268:	00000413          	addi	s0,zero,0
 26c:	00000493          	addi	s1,zero,0
 270:	fe84dae3          	bge	s1,s0,264 <L28_t>
 274:	00000513          	addi	a0,zero,0
 278:	00000067          	jalr	zero,0(zero) # 0 <_start>

0000027c <L28_e>:
 27c:	00c0006f          	jal	zero,288 <L31>

00000280 <L31_t>:
 280:	00000513          	addi	a0,zero,0
 284:	00000067          	jalr	zero,0(zero) # 0 <_start>

00000288 <L31>:
 288:	0a5a6437          	lui	s0,0xa5a6
 28c:	a5a40413          	addi	s0,s0,-1446 # a5a5a5a <__global_pointer$+0xa5a3f3e>
 290:	05a5a4b7          	lui	s1,0x5a5a
 294:	5a548493          	addi	s1,s1,1445 # 5a5a5a5 <__global_pointer$+0x5a58a89>
 298:	fe84d4e3          	bge	s1,s0,280 <L31_t>
 29c:	00c0006f          	jal	zero,2a8 <L32>

000002a0 <L32_t>:
 2a0:	00000513          	addi	a0,zero,0
 2a4:	00000067          	jalr	zero,0(zero) # 0 <_start>

000002a8 <L32>:
 2a8:	aa55b437          	lui	s0,0xaa55b
 2ac:	a5540413          	addi	s0,s0,-1451 # aa55aa55 <__global_pointer$+0xaa558f39>
 2b0:	a5a5a4b7          	lui	s1,0xa5a5a
 2b4:	5a548493          	addi	s1,s1,1445 # a5a5a5a5 <__global_pointer$+0xa5a58a89>
 2b8:	fe84d4e3          	bge	s1,s0,2a0 <L32_t>
 2bc:	00c0006f          	jal	zero,2c8 <L33>

000002c0 <L33_t>:
 2c0:	00000513          	addi	a0,zero,0
 2c4:	00000067          	jalr	zero,0(zero) # 0 <_start>

000002c8 <L33>:
 2c8:	5a5a6437          	lui	s0,0x5a5a6
 2cc:	a5a40413          	addi	s0,s0,-1446 # 5a5a5a5a <__global_pointer$+0x5a5a3f3e>
 2d0:	a5a5a4b7          	lui	s1,0xa5a5a
 2d4:	5a548493          	addi	s1,s1,1445 # a5a5a5a5 <__global_pointer$+0xa5a58a89>
 2d8:	fe84d4e3          	bge	s1,s0,2c0 <L33_t>
 2dc:	00c0006f          	jal	zero,2e8 <L34>

000002e0 <L34_t>:
 2e0:	00000513          	addi	a0,zero,0
 2e4:	00000067          	jalr	zero,0(zero) # 0 <_start>

000002e8 <L34>:
 2e8:	5a5a6437          	lui	s0,0x5a5a6
 2ec:	a5a40413          	addi	s0,s0,-1446 # 5a5a5a5a <__global_pointer$+0x5a5a3f3e>
 2f0:	00000493          	addi	s1,zero,0
 2f4:	fe84d6e3          	bge	s1,s0,2e0 <L34_t>
 2f8:	00c0006f          	jal	zero,304 <L35>

000002fc <L35_t>:
 2fc:	00000513          	addi	a0,zero,0
 300:	00000067          	jalr	zero,0(zero) # 0 <_start>

00000304 <L35>:
 304:	00000413          	addi	s0,zero,0
 308:	a5a5a4b7          	lui	s1,0xa5a5a
 30c:	5a548493          	addi	s1,s1,1445 # a5a5a5a5 <__global_pointer$+0xa5a58a89>
 310:	fe84d6e3          	bge	s1,s0,2fc <L35_t>
 314:	00100513          	addi	a0,zero,1

00000318 <_test_finish>:
 318:	00000067          	jalr	zero,0(zero) # 0 <_start>
